target datalayout = "e-m:e-p270:32:32-p271:32:32-p272:64:64-i64:64-i128:128-f80:128-n8:16:32:64-S128"
target triple = "x86_64-pc-linux-gnu"

%union.Value = type { ptr }
%struct.lua_TValue = type { %union.Value, i32 }

; Function Attrs: nounwind uwtable
define hidden i32 @luaO_rawequalObj(ptr noundef %0, ptr noundef %1) #0 {
  %3 = alloca i32, align 4
  %4 = alloca ptr, align 8
  %5 = alloca ptr, align 8
  store ptr %0, ptr %4, align 8, !tbaa !12
  store ptr %1, ptr %5, align 8, !tbaa !12
  %6 = load ptr, ptr %4, align 8, !tbaa !12
  %7 = getelementptr inbounds nuw %struct.lua_TValue, ptr %6, i32 0, i32 1
  %8 = load i32, ptr %7, align 8, !tbaa !15
  %9 = load ptr, ptr %5, align 8, !tbaa !12
  %10 = getelementptr inbounds nuw %struct.lua_TValue, ptr %9, i32 0, i32 1
  %11 = load i32, ptr %10, align 8, !tbaa !15
  %12 = icmp ne i32 %8, %11
  br i1 %12, label %13, label %14

13:                                               ; preds = %2
  store i32 0, ptr %3, align 4
  br label %55

14:                                               ; preds = %2
  %15 = load ptr, ptr %4, align 8, !tbaa !12
  %16 = getelementptr inbounds nuw %struct.lua_TValue, ptr %15, i32 0, i32 1
  %17 = load i32, ptr %16, align 8, !tbaa !15
  switch i32 %17, label %46 [
    i32 0, label %18
    i32 3, label %19
    i32 1, label %28
    i32 2, label %37
  ]

18:                                               ; preds = %14
  store i32 1, ptr %3, align 4
  br label %55

19:                                               ; preds = %14
  %20 = load ptr, ptr %4, align 8, !tbaa !12
  %21 = getelementptr inbounds nuw %struct.lua_TValue, ptr %20, i32 0, i32 0
  %22 = load double, ptr %21, align 8, !tbaa !11
  %23 = load ptr, ptr %5, align 8, !tbaa !12
  %24 = getelementptr inbounds nuw %struct.lua_TValue, ptr %23, i32 0, i32 0
  %25 = load double, ptr %24, align 8, !tbaa !11
  %26 = fcmp oeq double %22, %25
  %27 = zext i1 %26 to i32
  store i32 %27, ptr %3, align 4
  br label %55

28:                                               ; preds = %14
  %29 = load ptr, ptr %4, align 8, !tbaa !12
  %30 = getelementptr inbounds nuw %struct.lua_TValue, ptr %29, i32 0, i32 0
  %31 = load i32, ptr %30, align 8, !tbaa !11
  %32 = load ptr, ptr %5, align 8, !tbaa !12
  %33 = getelementptr inbounds nuw %struct.lua_TValue, ptr %32, i32 0, i32 0
  %34 = load i32, ptr %33, align 8, !tbaa !11
  %35 = icmp eq i32 %31, %34
  %36 = zext i1 %35 to i32
  store i32 %36, ptr %3, align 4
  br label %55

37:                                               ; preds = %14
  %38 = load ptr, ptr %4, align 8, !tbaa !12
  %39 = getelementptr inbounds nuw %struct.lua_TValue, ptr %38, i32 0, i32 0
  %40 = load ptr, ptr %39, align 8, !tbaa !11
  %41 = load ptr, ptr %5, align 8, !tbaa !12
  %42 = getelementptr inbounds nuw %struct.lua_TValue, ptr %41, i32 0, i32 0
  %43 = load ptr, ptr %42, align 8, !tbaa !11
  %44 = icmp eq ptr %40, %43
  %45 = zext i1 %44 to i32
  store i32 %45, ptr %3, align 4
  br label %55

46:                                               ; preds = %14
  %47 = load ptr, ptr %4, align 8, !tbaa !12
  %48 = getelementptr inbounds nuw %struct.lua_TValue, ptr %47, i32 0, i32 0
  %49 = load ptr, ptr %48, align 8, !tbaa !11
  %50 = load ptr, ptr %5, align 8, !tbaa !12
  %51 = getelementptr inbounds nuw %struct.lua_TValue, ptr %50, i32 0, i32 0
  %52 = load ptr, ptr %51, align 8, !tbaa !11
  %53 = icmp eq ptr %49, %52
  %54 = zext i1 %53 to i32
  store i32 %54, ptr %3, align 4
  br label %55

55:                                               ; preds = %46, %37, %28, %19, %18, %13
  %56 = load i32, ptr %3, align 4
  ret i32 %56
}