; Function Attrs: mustprogress nofree norecurse nosync nounwind willreturn memory(argmem: read) uwtable
define hidden range(i32 0, 2) i32 @luaO_rawequalObj(ptr noundef readonly captures(none) %0, ptr noundef readonly captures(none) %1) local_unnamed_addr #3 {
  %3 = getelementptr inbounds nuw i8, ptr %0, i64 8
  %4 = load i32, ptr %3, align 8, !tbaa !10
  %5 = getelementptr inbounds nuw i8, ptr %1, i64 8
  %6 = load i32, ptr %5, align 8, !tbaa !10
  %.not = icmp eq i32 %4, %6
  br i1 %.not, label %7, label %24

7:                                                ; preds = %2
  switch i32 %4, label %20 [
    i32 0, label %24
    i32 3, label %8
    i32 1, label %12
    i32 2, label %16
  ]

8:                                                ; preds = %7
  %9 = load double, ptr %0, align 8, !tbaa !7
  %10 = load double, ptr %1, align 8, !tbaa !7
  %11 = fcmp oeq double %9, %10
  br label %24

12:                                               ; preds = %7
  %13 = load i32, ptr %0, align 8, !tbaa !7
  %14 = load i32, ptr %1, align 8, !tbaa !7
  %15 = icmp eq i32 %13, %14
  br label %24

16:                                               ; preds = %7
  %17 = load ptr, ptr %0, align 8, !tbaa !7
  %18 = load ptr, ptr %1, align 8, !tbaa !7
  %19 = icmp eq ptr %17, %18
  br label %24

20:                                               ; preds = %7
  %21 = load ptr, ptr %0, align 8, !tbaa !7
  %22 = load ptr, ptr %1, align 8, !tbaa !7
  %23 = icmp eq ptr %21, %22
  br label %24

24:                                               ; preds = %7, %2, %20, %16, %12, %8
  %.0.shrunk = phi i1 [ %23, %20 ], [ %19, %16 ], [ %15, %12 ], [ %11, %8 ], [ false, %2 ], [ true, %7 ]
  %.0 = zext i1 %.0.shrunk to i32
  ret i32 %.0
}